target datalayout = "e-m:e-p270:32:32-p271:32:32-p272:64:64-i64:64-i128:128-f80:128-n8:16:32:64-S128"
target triple = "x86_64-pc-linux-gnu"

@.str = private unnamed_addr constant [47 x i8] c"src/hotspot/share/jvmci/jvmciCodeInstaller.cpp\00", align 1
@g_assert_poison = external global ptr, align 8

; Function Attrs: mustprogress nounwind uwtable
define hidden noundef i32 @_ZN13CodeInstaller13map_jvmci_bciEi(ptr noundef nonnull align 8 dereferenceable(225) %0, i32 noundef %1) #1 align 2 {
  %3 = alloca i32, align 4
  %4 = alloca ptr, align 8
  %5 = alloca i32, align 4
  store ptr %0, ptr %4, align 8
  store i32 %1, ptr %5, align 4
  %6 = load i32, ptr %5, align 4
  %7 = icmp slt i32 %6, 0
  br i1 %7, label %8, label %20

8:                                                ; preds = %2
  %9 = load i32, ptr %5, align 4
  switch i32 %9, label %16 [
    i32 -2, label %10
    i32 -3, label %11
    i32 -1, label %12
    i32 -4, label %13
    i32 -5, label %14
    i32 -6, label %15
  ]

10:                                               ; preds = %8
  store i32 -1, ptr %3, align 4
  br label %22

11:                                               ; preds = %8
  store i32 -2, ptr %3, align 4
  br label %22

12:                                               ; preds = %8
  store i32 -3, ptr %3, align 4
  br label %22

13:                                               ; preds = %8
  store i32 -4, ptr %3, align 4
  br label %22

14:                                               ; preds = %8
  store i32 -5, ptr %3, align 4
  br label %22

15:                                               ; preds = %8
  store i32 -6, ptr %3, align 4
  br label %22

16:                                               ; preds = %8
  br label %17

17:                                               ; preds = %16
  %18 = load ptr, ptr @g_assert_poison, align 8
  store i8 88, ptr %18, align 1
  call void @_Z28report_should_not_reach_herePKci(ptr noundef @.str, i32 noundef 1117) #12
  unreachable

19:                                               ; No predecessors!
  br label %20

20:                                               ; preds = %19, %2
  %21 = load i32, ptr %5, align 4
  store i32 %21, ptr %3, align 4
  br label %22

22:                                               ; preds = %20, %15, %14, %13, %12, %11, %10
  %23 = load i32, ptr %3, align 4
  ret i32 %23
}