; Function Attrs: mustprogress nounwind uwtable
define hidden noundef range(i32 -6, -2147483648) i32 @_ZN13CodeInstaller13map_jvmci_bciEi(ptr nocapture noundef nonnull readnone align 8 dereferenceable(225) %0, i32 noundef %1) local_unnamed_addr #2 align 2 {
  %3 = icmp slt i32 %1, 0
  br i1 %3, label %4, label %9

4:                                                ; preds = %2
  %5 = icmp ugt i32 %1, -7
  br i1 %5, label %switch.lookup, label %6

6:                                                ; preds = %4
  %7 = load ptr, ptr @g_assert_poison, align 8
  store i8 88, ptr %7, align 1
  tail call void @_Z28report_should_not_reach_herePKci(ptr noundef nonnull @.str, i32 noundef 1117) #11
  unreachable

switch.lookup:                                    ; preds = %4
  %switch.tableidx = add nsw i32 %1, 6
  %8 = sext i32 %switch.tableidx to i64
  %switch.gep = getelementptr inbounds [6 x i32], ptr @switch.table._ZN13CodeInstaller13map_jvmci_bciEi, i64 0, i64 %8
  %switch.load = load i32, ptr %switch.gep, align 4
  br label %9

9:                                                ; preds = %switch.lookup, %2
  %.0 = phi i32 [ %1, %2 ], [ %switch.load, %switch.lookup ]
  ret i32 %.0
}